target datalayout = "e-m:e-p270:32:32-p271:32:32-p272:64:64-i64:64-i128:128-f80:128-n8:16:32:64-S128"
target triple = "x86_64-pc-linux-gnu"

; Function Attrs: inlinehint nounwind uwtable
define internal void @_mpd_idiv_word(ptr noundef %0, ptr noundef %1, i64 noundef %2, i64 noundef %3) #2 {
  %5 = alloca ptr, align 8
  %6 = alloca ptr, align 8
  %7 = alloca i64, align 8
  %8 = alloca i64, align 8
  store ptr %0, ptr %5, align 8, !tbaa !24
  store ptr %1, ptr %6, align 8, !tbaa !24
  store i64 %2, ptr %7, align 8, !tbaa !3
  store i64 %3, ptr %8, align 8, !tbaa !3
  %9 = load i64, ptr %7, align 8, !tbaa !3
  %10 = load i64, ptr %8, align 8, !tbaa !3
  %11 = sdiv i64 %9, %10
  %12 = load ptr, ptr %5, align 8, !tbaa !24
  store i64 %11, ptr %12, align 8, !tbaa !3
  %13 = load i64, ptr %7, align 8, !tbaa !3
  %14 = load ptr, ptr %5, align 8, !tbaa !24
  %15 = load i64, ptr %14, align 8, !tbaa !3
  %16 = load i64, ptr %8, align 8, !tbaa !3
  %17 = mul i64 %15, %16
  %18 = sub i64 %13, %17
  %19 = load ptr, ptr %6, align 8, !tbaa !24
  store i64 %18, ptr %19, align 8, !tbaa !3
  ret void
}

; Function Attrs: nounwind uwtable
define hidden i64 @mpd_digits_to_size(i64 noundef %0) #0 {
  %2 = alloca i64, align 8
  %3 = alloca i64, align 8
  %4 = alloca i64, align 8
  store i64 %0, ptr %2, align 8, !tbaa !3
  call void @llvm.lifetime.start.p0(i64 8, ptr %3) #10
  call void @llvm.lifetime.start.p0(i64 8, ptr %4) #10
  %5 = load i64, ptr %2, align 8, !tbaa !3
  call void @_mpd_idiv_word(ptr noundef %3, ptr noundef %4, i64 noundef %5, i64 noundef 19)
  %6 = load i64, ptr %4, align 8, !tbaa !3
  %7 = icmp eq i64 %6, 0
  br i1 %7, label %8, label %10

8:                                                ; preds = %1
  %9 = load i64, ptr %3, align 8, !tbaa !3
  br label %13

10:                                               ; preds = %1
  %11 = load i64, ptr %3, align 8, !tbaa !3
  %12 = add i64 %11, 1
  br label %13

13:                                               ; preds = %10, %8
  %14 = phi i64 [ %9, %8 ], [ %12, %10 ]
  call void @llvm.lifetime.end.p0(i64 8, ptr %4) #10
  call void @llvm.lifetime.end.p0(i64 8, ptr %3) #10
  ret i64 %14
}