; Function Attrs: mustprogress nofree norecurse nosync nounwind willreturn memory(none) uwtable
define hidden range(i64 -485440633518672410, 485440633518672412) i64 @mpd_digits_to_size(i64 noundef %0) local_unnamed_addr #0 {
  %2 = sdiv i64 %0, 19
  %.neg.i = mul nsw i64 %2, -19
  %3 = sub i64 0, %0
  %4 = icmp ne i64 %.neg.i, %3
  %5 = zext i1 %4 to i64
  %6 = add nsw i64 %2, %5
  ret i64 %6
}